target datalayout = "e-m:e-p270:32:32-p271:32:32-p272:64:64-i64:64-i128:128-f80:128-n8:16:32:64-S128"
target triple = "x86_64-pc-linux-gnu"

%struct.mbedtls_mpi = type { i32, i64, ptr }

; Function Attrs: mustprogress uwtable
define internal void @_ZL19mbedtls_mpi_zeroizePmm(ptr noundef %0, i64 noundef %1) #1 {
  %3 = alloca ptr, align 8
  %4 = alloca i64, align 8
  store ptr %0, ptr %3, align 8, !tbaa !15
  store i64 %1, ptr %4, align 8, !tbaa !16
  %5 = load ptr, ptr %3, align 8, !tbaa !15
  %6 = load i64, ptr %4, align 8, !tbaa !16
  %7 = mul i64 8, %6
  call void @mbedtls_platform_zeroize(ptr noundef %5, i64 noundef %7)
  ret void
}

; Function Attrs: mustprogress nounwind uwtable
define internal noundef i64 @_ZL11mbedtls_clzm(i64 noundef %0) #0 {
  %2 = alloca i64, align 8
  %3 = alloca i64, align 8
  %4 = alloca i64, align 8
  store i64 %0, ptr %2, align 8, !tbaa !16
  call void @llvm.lifetime.start.p0(i64 8, ptr %3) #10
  call void @llvm.lifetime.start.p0(i64 8, ptr %4) #10
  store i64 -9223372036854775808, ptr %4, align 8, !tbaa !16
  store i64 0, ptr %3, align 8, !tbaa !16
  br label %5

5:                                                ; preds = %17, %1
  %6 = load i64, ptr %3, align 8, !tbaa !16
  %7 = icmp ult i64 %6, 64
  br i1 %7, label %8, label %20

8:                                                ; preds = %5
  %9 = load i64, ptr %2, align 8, !tbaa !16
  %10 = load i64, ptr %4, align 8, !tbaa !16
  %11 = and i64 %9, %10
  %12 = icmp ne i64 %11, 0
  br i1 %12, label %13, label %14

13:                                               ; preds = %8
  br label %20

14:                                               ; preds = %8
  %15 = load i64, ptr %4, align 8, !tbaa !16
  %16 = lshr i64 %15, 1
  store i64 %16, ptr %4, align 8, !tbaa !16
  br label %17

17:                                               ; preds = %14
  %18 = load i64, ptr %3, align 8, !tbaa !16
  %19 = add i64 %18, 1
  store i64 %19, ptr %3, align 8, !tbaa !16
  br label %5, !llvm.loop !25

20:                                               ; preds = %13, %5
  %21 = load i64, ptr %3, align 8, !tbaa !16
  call void @llvm.lifetime.end.p0(i64 8, ptr %4) #10
  call void @llvm.lifetime.end.p0(i64 8, ptr %3) #10
  ret i64 %21
}

; Function Attrs: mustprogress uwtable
define hidden i32 @mbedtls_mpi_grow(ptr noundef %0, i64 noundef %1) #1 {
  %3 = alloca i32, align 4
  %4 = alloca ptr, align 8
  %5 = alloca i64, align 8
  %6 = alloca ptr, align 8
  %7 = alloca i32, align 4
  store ptr %0, ptr %4, align 8, !tbaa !3
  store i64 %1, ptr %5, align 8, !tbaa !16
  call void @llvm.lifetime.start.p0(i64 8, ptr %6) #10
  br label %8

8:                                                ; preds = %2
  br label %9

9:                                                ; preds = %8
  br label %10

10:                                               ; preds = %9
  %11 = load i64, ptr %5, align 8, !tbaa !16
  %12 = icmp ugt i64 %11, 10000
  br i1 %12, label %13, label %14

13:                                               ; preds = %10
  store i32 -16, ptr %3, align 4
  store i32 1, ptr %7, align 4
  br label %56

14:                                               ; preds = %10
  %15 = load ptr, ptr %4, align 8, !tbaa !3
  %16 = getelementptr inbounds nuw %struct.mbedtls_mpi, ptr %15, i32 0, i32 1
  %17 = load i64, ptr %16, align 8, !tbaa !13
  %18 = load i64, ptr %5, align 8, !tbaa !16
  %19 = icmp ult i64 %17, %18
  br i1 %19, label %20, label %55

20:                                               ; preds = %14
  %21 = load i64, ptr %5, align 8, !tbaa !16
  %22 = call noalias ptr @calloc(i64 noundef %21, i64 noundef 8) #11
  store ptr %22, ptr %6, align 8, !tbaa !15
  %23 = icmp eq ptr %22, null
  br i1 %23, label %24, label %25

24:                                               ; preds = %20
  store i32 -16, ptr %3, align 4
  store i32 1, ptr %7, align 4
  br label %56

25:                                               ; preds = %20
  %26 = load ptr, ptr %4, align 8, !tbaa !3
  %27 = getelementptr inbounds nuw %struct.mbedtls_mpi, ptr %26, i32 0, i32 2
  %28 = load ptr, ptr %27, align 8, !tbaa !14
  %29 = icmp ne ptr %28, null
  br i1 %29, label %30, label %48

30:                                               ; preds = %25
  %31 = load ptr, ptr %6, align 8, !tbaa !15
  %32 = load ptr, ptr %4, align 8, !tbaa !3
  %33 = getelementptr inbounds nuw %struct.mbedtls_mpi, ptr %32, i32 0, i32 2
  %34 = load ptr, ptr %33, align 8, !tbaa !14
  %35 = load ptr, ptr %4, align 8, !tbaa !3
  %36 = getelementptr inbounds nuw %struct.mbedtls_mpi, ptr %35, i32 0, i32 1
  %37 = load i64, ptr %36, align 8, !tbaa !13
  %38 = mul i64 %37, 8
  call void @llvm.memcpy.p0.p0.i64(ptr align 8 %31, ptr align 8 %34, i64 %38, i1 false)
  %39 = load ptr, ptr %4, align 8, !tbaa !3
  %40 = getelementptr inbounds nuw %struct.mbedtls_mpi, ptr %39, i32 0, i32 2
  %41 = load ptr, ptr %40, align 8, !tbaa !14
  %42 = load ptr, ptr %4, align 8, !tbaa !3
  %43 = getelementptr inbounds nuw %struct.mbedtls_mpi, ptr %42, i32 0, i32 1
  %44 = load i64, ptr %43, align 8, !tbaa !13
  call void @_ZL19mbedtls_mpi_zeroizePmm(ptr noundef %41, i64 noundef %44)
  %45 = load ptr, ptr %4, align 8, !tbaa !3
  %46 = getelementptr inbounds nuw %struct.mbedtls_mpi, ptr %45, i32 0, i32 2
  %47 = load ptr, ptr %46, align 8, !tbaa !14
  call void @free(ptr noundef %47) #10
  br label %48

48:                                               ; preds = %30, %25
  %49 = load i64, ptr %5, align 8, !tbaa !16
  %50 = load ptr, ptr %4, align 8, !tbaa !3
  %51 = getelementptr inbounds nuw %struct.mbedtls_mpi, ptr %50, i32 0, i32 1
  store i64 %49, ptr %51, align 8, !tbaa !13
  %52 = load ptr, ptr %6, align 8, !tbaa !15
  %53 = load ptr, ptr %4, align 8, !tbaa !3
  %54 = getelementptr inbounds nuw %struct.mbedtls_mpi, ptr %53, i32 0, i32 2
  store ptr %52, ptr %54, align 8, !tbaa !14
  br label %55

55:                                               ; preds = %48, %14
  store i32 0, ptr %3, align 4
  store i32 1, ptr %7, align 4
  br label %56

56:                                               ; preds = %55, %24, %13
  call void @llvm.lifetime.end.p0(i64 8, ptr %6) #10
  %57 = load i32, ptr %3, align 4
  ret i32 %57
}

; Function Attrs: mustprogress uwtable
define hidden i64 @mbedtls_mpi_bitlen(ptr noundef %0) #1 {
  %2 = alloca i64, align 8
  %3 = alloca ptr, align 8
  %4 = alloca i64, align 8
  %5 = alloca i64, align 8
  %6 = alloca i32, align 4
  store ptr %0, ptr %3, align 8, !tbaa !3
  call void @llvm.lifetime.start.p0(i64 8, ptr %4) #10
  call void @llvm.lifetime.start.p0(i64 8, ptr %5) #10
  %7 = load ptr, ptr %3, align 8, !tbaa !3
  %8 = getelementptr inbounds nuw %struct.mbedtls_mpi, ptr %7, i32 0, i32 1
  %9 = load i64, ptr %8, align 8, !tbaa !13
  %10 = icmp eq i64 %9, 0
  br i1 %10, label %11, label %12

11:                                               ; preds = %1
  store i64 0, ptr %2, align 8
  store i32 1, ptr %6, align 4
  br label %46

12:                                               ; preds = %1
  %13 = load ptr, ptr %3, align 8, !tbaa !3
  %14 = getelementptr inbounds nuw %struct.mbedtls_mpi, ptr %13, i32 0, i32 1
  %15 = load i64, ptr %14, align 8, !tbaa !13
  %16 = sub i64 %15, 1
  store i64 %16, ptr %4, align 8, !tbaa !16
  br label %17

17:                                               ; preds = %30, %12
  %18 = load i64, ptr %4, align 8, !tbaa !16
  %19 = icmp ugt i64 %18, 0
  br i1 %19, label %20, label %33

20:                                               ; preds = %17
  %21 = load ptr, ptr %3, align 8, !tbaa !3
  %22 = getelementptr inbounds nuw %struct.mbedtls_mpi, ptr %21, i32 0, i32 2
  %23 = load ptr, ptr %22, align 8, !tbaa !14
  %24 = load i64, ptr %4, align 8, !tbaa !16
  %25 = getelementptr inbounds nuw i64, ptr %23, i64 %24
  %26 = load i64, ptr %25, align 8, !tbaa !16
  %27 = icmp ne i64 %26, 0
  br i1 %27, label %28, label %29

28:                                               ; preds = %20
  br label %33

29:                                               ; preds = %20
  br label %30

30:                                               ; preds = %29
  %31 = load i64, ptr %4, align 8, !tbaa !16
  %32 = add i64 %31, -1
  store i64 %32, ptr %4, align 8, !tbaa !16
  br label %17, !llvm.loop !24

33:                                               ; preds = %28, %17
  %34 = load ptr, ptr %3, align 8, !tbaa !3
  %35 = getelementptr inbounds nuw %struct.mbedtls_mpi, ptr %34, i32 0, i32 2
  %36 = load ptr, ptr %35, align 8, !tbaa !14
  %37 = load i64, ptr %4, align 8, !tbaa !16
  %38 = getelementptr inbounds nuw i64, ptr %36, i64 %37
  %39 = load i64, ptr %38, align 8, !tbaa !16
  %40 = call noundef i64 @_ZL11mbedtls_clzm(i64 noundef %39)
  %41 = sub i64 64, %40
  store i64 %41, ptr %5, align 8, !tbaa !16
  %42 = load i64, ptr %4, align 8, !tbaa !16
  %43 = mul i64 %42, 64
  %44 = load i64, ptr %5, align 8, !tbaa !16
  %45 = add i64 %43, %44
  store i64 %45, ptr %2, align 8
  store i32 1, ptr %6, align 4
  br label %46

46:                                               ; preds = %33, %11
  call void @llvm.lifetime.end.p0(i64 8, ptr %5) #10
  call void @llvm.lifetime.end.p0(i64 8, ptr %4) #10
  %47 = load i64, ptr %2, align 8
  ret i64 %47
}

; Function Attrs: mustprogress uwtable
define hidden i32 @mbedtls_mpi_shift_l(ptr noundef %0, i64 noundef %1) #1 {
  %3 = alloca ptr, align 8
  %4 = alloca i64, align 8
  %5 = alloca i32, align 4
  %6 = alloca i64, align 8
  %7 = alloca i64, align 8
  %8 = alloca i64, align 8
  %9 = alloca i64, align 8
  %10 = alloca i64, align 8
  store ptr %0, ptr %3, align 8, !tbaa !3
  store i64 %1, ptr %4, align 8, !tbaa !16
  call void @llvm.lifetime.start.p0(i64 4, ptr %5) #10
  store i32 -110, ptr %5, align 4, !tbaa !19
  call void @llvm.lifetime.start.p0(i64 8, ptr %6) #10
  call void @llvm.lifetime.start.p0(i64 8, ptr %7) #10
  call void @llvm.lifetime.start.p0(i64 8, ptr %8) #10
  call void @llvm.lifetime.start.p0(i64 8, ptr %9) #10
  store i64 0, ptr %9, align 8, !tbaa !16
  call void @llvm.lifetime.start.p0(i64 8, ptr %10) #10
  br label %11

11:                                               ; preds = %2
  br label %12

12:                                               ; preds = %11
  br label %13

13:                                               ; preds = %12
  %14 = load i64, ptr %4, align 8, !tbaa !16
  %15 = udiv i64 %14, 64
  store i64 %15, ptr %7, align 8, !tbaa !16
  %16 = load i64, ptr %4, align 8, !tbaa !16
  %17 = and i64 %16, 63
  store i64 %17, ptr %8, align 8, !tbaa !16
  %18 = load ptr, ptr %3, align 8, !tbaa !3
  %19 = call i64 @mbedtls_mpi_bitlen(ptr noundef %18)
  %20 = load i64, ptr %4, align 8, !tbaa !16
  %21 = add i64 %19, %20
  store i64 %21, ptr %6, align 8, !tbaa !16
  %22 = load ptr, ptr %3, align 8, !tbaa !3
  %23 = getelementptr inbounds nuw %struct.mbedtls_mpi, ptr %22, i32 0, i32 1
  %24 = load i64, ptr %23, align 8, !tbaa !13
  %25 = mul i64 %24, 64
  %26 = load i64, ptr %6, align 8, !tbaa !16
  %27 = icmp ult i64 %25, %26
  br i1 %27, label %28, label %44

28:                                               ; preds = %13
  br label %29

29:                                               ; preds = %28
  %30 = load ptr, ptr %3, align 8, !tbaa !3
  %31 = load i64, ptr %6, align 8, !tbaa !16
  %32 = udiv i64 %31, 64
  %33 = load i64, ptr %6, align 8, !tbaa !16
  %34 = urem i64 %33, 64
  %35 = icmp ne i64 %34, 0
  %36 = zext i1 %35 to i64
  %37 = add i64 %32, %36
  %38 = call i32 @mbedtls_mpi_grow(ptr noundef %30, i64 noundef %37)
  store i32 %38, ptr %5, align 4, !tbaa !19
  %39 = icmp ne i32 %38, 0
  br i1 %39, label %40, label %41

40:                                               ; preds = %29
  br label %132

41:                                               ; preds = %29
  br label %42

42:                                               ; preds = %41
  br label %43

43:                                               ; preds = %42
  br label %44

44:                                               ; preds = %43, %13
  store i32 0, ptr %5, align 4, !tbaa !19
  %45 = load i64, ptr %7, align 8, !tbaa !16
  %46 = icmp ugt i64 %45, 0
  br i1 %46, label %47, label %89

47:                                               ; preds = %44
  %48 = load ptr, ptr %3, align 8, !tbaa !3
  %49 = getelementptr inbounds nuw %struct.mbedtls_mpi, ptr %48, i32 0, i32 1
  %50 = load i64, ptr %49, align 8, !tbaa !13
  store i64 %50, ptr %6, align 8, !tbaa !16
  br label %51

51:                                               ; preds = %71, %47
  %52 = load i64, ptr %6, align 8, !tbaa !16
  %53 = load i64, ptr %7, align 8, !tbaa !16
  %54 = icmp ugt i64 %52, %53
  br i1 %54, label %55, label %74

55:                                               ; preds = %51
  %56 = load ptr, ptr %3, align 8, !tbaa !3
  %57 = getelementptr inbounds nuw %struct.mbedtls_mpi, ptr %56, i32 0, i32 2
  %58 = load ptr, ptr %57, align 8, !tbaa !14
  %59 = load i64, ptr %6, align 8, !tbaa !16
  %60 = load i64, ptr %7, align 8, !tbaa !16
  %61 = sub i64 %59, %60
  %62 = sub i64 %61, 1
  %63 = getelementptr inbounds nuw i64, ptr %58, i64 %62
  %64 = load i64, ptr %63, align 8, !tbaa !16
  %65 = load ptr, ptr %3, align 8, !tbaa !3
  %66 = getelementptr inbounds nuw %struct.mbedtls_mpi, ptr %65, i32 0, i32 2
  %67 = load ptr, ptr %66, align 8, !tbaa !14
  %68 = load i64, ptr %6, align 8, !tbaa !16
  %69 = sub i64 %68, 1
  %70 = getelementptr inbounds nuw i64, ptr %67, i64 %69
  store i64 %64, ptr %70, align 8, !tbaa !16
  br label %71

71:                                               ; preds = %55
  %72 = load i64, ptr %6, align 8, !tbaa !16
  %73 = add i64 %72, -1
  store i64 %73, ptr %6, align 8, !tbaa !16
  br label %51, !llvm.loop !42

74:                                               ; preds = %51
  br label %75

75:                                               ; preds = %85, %74
  %76 = load i64, ptr %6, align 8, !tbaa !16
  %77 = icmp ugt i64 %76, 0
  br i1 %77, label %78, label %88

78:                                               ; preds = %75
  %79 = load ptr, ptr %3, align 8, !tbaa !3
  %80 = getelementptr inbounds nuw %struct.mbedtls_mpi, ptr %79, i32 0, i32 2
  %81 = load ptr, ptr %80, align 8, !tbaa !14
  %82 = load i64, ptr %6, align 8, !tbaa !16
  %83 = sub i64 %82, 1
  %84 = getelementptr inbounds nuw i64, ptr %81, i64 %83
  store i64 0, ptr %84, align 8, !tbaa !16
  br label %85

85:                                               ; preds = %78
  %86 = load i64, ptr %6, align 8, !tbaa !16
  %87 = add i64 %86, -1
  store i64 %87, ptr %6, align 8, !tbaa !16
  br label %75, !llvm.loop !43

88:                                               ; preds = %75
  br label %89

89:                                               ; preds = %88, %44
  %90 = load i64, ptr %8, align 8, !tbaa !16
  %91 = icmp ugt i64 %90, 0
  br i1 %91, label %92, label %131

92:                                               ; preds = %89
  %93 = load i64, ptr %7, align 8, !tbaa !16
  store i64 %93, ptr %6, align 8, !tbaa !16
  br label %94

94:                                               ; preds = %127, %92
  %95 = load i64, ptr %6, align 8, !tbaa !16
  %96 = load ptr, ptr %3, align 8, !tbaa !3
  %97 = getelementptr inbounds nuw %struct.mbedtls_mpi, ptr %96, i32 0, i32 1
  %98 = load i64, ptr %97, align 8, !tbaa !13
  %99 = icmp ult i64 %95, %98
  br i1 %99, label %100, label %130

100:                                              ; preds = %94
  %101 = load ptr, ptr %3, align 8, !tbaa !3
  %102 = getelementptr inbounds nuw %struct.mbedtls_mpi, ptr %101, i32 0, i32 2
  %103 = load ptr, ptr %102, align 8, !tbaa !14
  %104 = load i64, ptr %6, align 8, !tbaa !16
  %105 = getelementptr inbounds nuw i64, ptr %103, i64 %104
  %106 = load i64, ptr %105, align 8, !tbaa !16
  %107 = load i64, ptr %8, align 8, !tbaa !16
  %108 = sub i64 64, %107
  %109 = lshr i64 %106, %108
  store i64 %109, ptr %10, align 8, !tbaa !16
  %110 = load i64, ptr %8, align 8, !tbaa !16
  %111 = load ptr, ptr %3, align 8, !tbaa !3
  %112 = getelementptr inbounds nuw %struct.mbedtls_mpi, ptr %111, i32 0, i32 2
  %113 = load ptr, ptr %112, align 8, !tbaa !14
  %114 = load i64, ptr %6, align 8, !tbaa !16
  %115 = getelementptr inbounds nuw i64, ptr %113, i64 %114
  %116 = load i64, ptr %115, align 8, !tbaa !16
  %117 = shl i64 %116, %110
  store i64 %117, ptr %115, align 8, !tbaa !16
  %118 = load i64, ptr %9, align 8, !tbaa !16
  %119 = load ptr, ptr %3, align 8, !tbaa !3
  %120 = getelementptr inbounds nuw %struct.mbedtls_mpi, ptr %119, i32 0, i32 2
  %121 = load ptr, ptr %120, align 8, !tbaa !14
  %122 = load i64, ptr %6, align 8, !tbaa !16
  %123 = getelementptr inbounds nuw i64, ptr %121, i64 %122
  %124 = load i64, ptr %123, align 8, !tbaa !16
  %125 = or i64 %124, %118
  store i64 %125, ptr %123, align 8, !tbaa !16
  %126 = load i64, ptr %10, align 8, !tbaa !16
  store i64 %126, ptr %9, align 8, !tbaa !16
  br label %127

127:                                              ; preds = %100
  %128 = load i64, ptr %6, align 8, !tbaa !16
  %129 = add i64 %128, 1
  store i64 %129, ptr %6, align 8, !tbaa !16
  br label %94, !llvm.loop !44

130:                                              ; preds = %94
  br label %131

131:                                              ; preds = %130, %89
  br label %132

132:                                              ; preds = %131, %40
  %133 = load i32, ptr %5, align 4, !tbaa !19
  call void @llvm.lifetime.end.p0(i64 8, ptr %10) #10
  call void @llvm.lifetime.end.p0(i64 8, ptr %9) #10
  call void @llvm.lifetime.end.p0(i64 8, ptr %8) #10
  call void @llvm.lifetime.end.p0(i64 8, ptr %7) #10
  call void @llvm.lifetime.end.p0(i64 8, ptr %6) #10
  call void @llvm.lifetime.end.p0(i64 4, ptr %5) #10
  ret i32 %133
}