; Function Attrs: mustprogress uwtable
define hidden range(i32 -16, 1) i32 @mbedtls_mpi_shift_l(ptr noundef captures(none) %0, i64 noundef %1) local_unnamed_addr #1 {
  %3 = lshr i64 %1, 6
  %4 = and i64 %1, 63
  %5 = getelementptr inbounds nuw i8, ptr %0, i64 8
  %6 = load i64, ptr %5, align 8, !tbaa !12
  %7 = icmp eq i64 %6, 0
  br i1 %7, label %mbedtls_mpi_bitlen.exit, label %.preheader.i

.preheader.i:                                     ; preds = %2
  %8 = getelementptr inbounds nuw i8, ptr %0, i64 16
  %.pre.pre.i = load ptr, ptr %8, align 8, !tbaa !11
  br label %9

9:                                                ; preds = %10, %.preheader.i
  %.010.in.i = phi i64 [ %.010.i, %10 ], [ %6, %.preheader.i ]
  %.010.i = add i64 %.010.in.i, -1
  %.not.i = icmp eq i64 %.010.i, 0
  br i1 %.not.i, label %._crit_edge.i, label %10

._crit_edge.i:                                    ; preds = %9
  %.pre14.i = load i64, ptr %.pre.pre.i, align 8, !tbaa !13
  br label %15

10:                                               ; preds = %9
  %11 = getelementptr inbounds nuw i64, ptr %.pre.pre.i, i64 %.010.i
  %12 = load i64, ptr %11, align 8, !tbaa !13
  %.not12.i = icmp eq i64 %12, 0
  br i1 %.not12.i, label %9, label %split.i, !llvm.loop !19

split.i:                                          ; preds = %10
  %13 = shl i64 %.010.i, 6
  %14 = add i64 %13, 64
  br label %15

15:                                               ; preds = %split.i, %._crit_edge.i
  %16 = phi i64 [ %.pre14.i, %._crit_edge.i ], [ %12, %split.i ]
  %.010.lcssa.i = phi i64 [ 64, %._crit_edge.i ], [ %14, %split.i ]
  %.not7.i.i = icmp sgt i64 %16, -1
  br i1 %.not7.i.i, label %.lr.ph.i.i, label %_ZL11mbedtls_clzm.exit.i

.lr.ph.i.i:                                       ; preds = %15, %.lr.ph.i.i
  %.09.i.i = phi i64 [ %17, %.lr.ph.i.i ], [ -9223372036854775808, %15 ]
  %.068.i.i = phi i64 [ %18, %.lr.ph.i.i ], [ 0, %15 ]
  %17 = lshr i64 %.09.i.i, 1
  %18 = add nuw nsw i64 %.068.i.i, 1
  %19 = icmp samesign ult i64 %.068.i.i, 63
  %20 = and i64 %17, %16
  %.not.i.i = icmp eq i64 %20, 0
  %or.cond.i.i = select i1 %19, i1 %.not.i.i, i1 false
  br i1 %or.cond.i.i, label %.lr.ph.i.i, label %_ZL11mbedtls_clzm.exit.loopexit.i, !llvm.loop !20

_ZL11mbedtls_clzm.exit.loopexit.i:                ; preds = %.lr.ph.i.i
  %.neg.i = xor i64 %.068.i.i, -1
  br label %_ZL11mbedtls_clzm.exit.i

_ZL11mbedtls_clzm.exit.i:                         ; preds = %_ZL11mbedtls_clzm.exit.loopexit.i, %15
  %.06.lcssa.i.neg13.i = phi i64 [ 0, %15 ], [ %.neg.i, %_ZL11mbedtls_clzm.exit.loopexit.i ]
  %21 = add i64 %.06.lcssa.i.neg13.i, %.010.lcssa.i
  br label %mbedtls_mpi_bitlen.exit

mbedtls_mpi_bitlen.exit:                          ; preds = %2, %_ZL11mbedtls_clzm.exit.i
  %.0.i = phi i64 [ %21, %_ZL11mbedtls_clzm.exit.i ], [ 0, %2 ]
  %22 = add i64 %.0.i, %1
  %23 = shl i64 %6, 6
  %24 = icmp ult i64 %23, %22
  br i1 %24, label %25, label %mbedtls_mpi_grow.exit.thread

25:                                               ; preds = %mbedtls_mpi_bitlen.exit
  %26 = lshr i64 %22, 6
  %27 = and i64 %22, 63
  %28 = icmp ne i64 %27, 0
  %29 = zext i1 %28 to i64
  %30 = add nuw nsw i64 %26, %29
  %31 = icmp samesign ugt i64 %30, 10000
  br i1 %31, label %mbedtls_mpi_grow.exit, label %32

32:                                               ; preds = %25
  %33 = icmp ult i64 %6, %30
  br i1 %33, label %34, label %mbedtls_mpi_grow.exit.thread

34:                                               ; preds = %32
  %35 = tail call noalias ptr @calloc(i64 noundef %30, i64 noundef 8) #16
  %36 = icmp eq ptr %35, null
  br i1 %36, label %mbedtls_mpi_grow.exit, label %37

37:                                               ; preds = %34
  %38 = getelementptr inbounds nuw i8, ptr %0, i64 16
  %39 = load ptr, ptr %38, align 8, !tbaa !11
  %.not.i48 = icmp eq ptr %39, null
  br i1 %.not.i48, label %43, label %40

40:                                               ; preds = %37
  %41 = shl nuw nsw i64 %6, 3
  tail call void @llvm.memcpy.p0.p0.i64(ptr nonnull align 8 %35, ptr nonnull align 8 %39, i64 %41, i1 false)
  tail call void @mbedtls_platform_zeroize(ptr noundef nonnull %39, i64 noundef %41)
  %42 = load ptr, ptr %38, align 8, !tbaa !11
  tail call void @free(ptr noundef %42) #15
  br label %43

43:                                               ; preds = %40, %37
  store i64 %30, ptr %5, align 8, !tbaa !12
  store ptr %35, ptr %38, align 8, !tbaa !11
  br label %mbedtls_mpi_grow.exit.thread

mbedtls_mpi_grow.exit.thread:                     ; preds = %32, %43, %mbedtls_mpi_bitlen.exit
  %44 = phi i64 [ %6, %32 ], [ %30, %43 ], [ %6, %mbedtls_mpi_bitlen.exit ]
  %.not44 = icmp ult i64 %1, 64
  br i1 %.not44, label %.loopexit, label %45

45:                                               ; preds = %mbedtls_mpi_grow.exit.thread
  %46 = icmp ugt i64 %44, %3
  br i1 %46, label %.lr.ph, label %.preheader51

.lr.ph:                                           ; preds = %45
  %47 = getelementptr inbounds nuw i8, ptr %0, i64 16
  %48 = load ptr, ptr %47, align 8, !tbaa !11
  %49 = xor i64 %3, -1
  br label %53

.preheader51:                                     ; preds = %53, %45
  %.039.lcssa = phi i64 [ %44, %45 ], [ %58, %53 ]
  %.not4554 = icmp eq i64 %.039.lcssa, 0
  br i1 %.not4554, label %.loopexit, label %.lr.ph56

.lr.ph56:                                         ; preds = %.preheader51
  %50 = getelementptr inbounds nuw i8, ptr %0, i64 16
  %51 = load ptr, ptr %50, align 8, !tbaa !11
  %52 = shl nuw i64 %.039.lcssa, 3
  tail call void @llvm.memset.p0.i64(ptr align 8 %51, i8 0, i64 %52, i1 false), !tbaa !13
  br label %.loopexit

53:                                               ; preds = %.lr.ph, %53
  %.03953 = phi i64 [ %44, %.lr.ph ], [ %58, %53 ]
  %54 = getelementptr i64, ptr %48, i64 %.03953
  %55 = getelementptr i64, ptr %54, i64 %49
  %56 = load i64, ptr %55, align 8, !tbaa !13
  %57 = getelementptr i8, ptr %54, i64 -8
  store i64 %56, ptr %57, align 8, !tbaa !13
  %58 = add i64 %.03953, -1
  %59 = icmp ugt i64 %58, %3
  br i1 %59, label %53, label %.preheader51, !llvm.loop !36

.loopexit:                                        ; preds = %.lr.ph56, %.preheader51, %mbedtls_mpi_grow.exit.thread
  %.not46 = icmp eq i64 %4, 0
  br i1 %.not46, label %mbedtls_mpi_grow.exit, label %.preheader

.preheader:                                       ; preds = %.loopexit
  %60 = load i64, ptr %5, align 8, !tbaa !12
  %61 = icmp ult i64 %3, %60
  br i1 %61, label %.lr.ph59, label %mbedtls_mpi_grow.exit

.lr.ph59:                                         ; preds = %.preheader
  %62 = getelementptr inbounds nuw i8, ptr %0, i64 16
  %63 = load ptr, ptr %62, align 8, !tbaa !11
  %64 = sub nuw nsw i64 64, %4
  br label %65

65:                                               ; preds = %.lr.ph59, %65
  %.03858 = phi i64 [ 0, %.lr.ph59 ], [ %68, %65 ]
  %.257 = phi i64 [ %3, %.lr.ph59 ], [ %71, %65 ]
  %66 = getelementptr inbounds nuw i64, ptr %63, i64 %.257
  %67 = load i64, ptr %66, align 8, !tbaa !13
  %68 = lshr i64 %67, %64
  %69 = shl i64 %67, %4
  %70 = or i64 %69, %.03858
  store i64 %70, ptr %66, align 8, !tbaa !13
  %71 = add nuw i64 %.257, 1
  %72 = load i64, ptr %5, align 8, !tbaa !12
  %73 = icmp ult i64 %71, %72
  br i1 %73, label %65, label %mbedtls_mpi_grow.exit, !llvm.loop !37

mbedtls_mpi_grow.exit:                            ; preds = %65, %.preheader, %34, %25, %.loopexit
  %.0 = phi i32 [ 0, %.loopexit ], [ -16, %25 ], [ -16, %34 ], [ 0, %.preheader ], [ 0, %65 ]
  ret i32 %.0
}